; Function Attrs: mustprogress uwtable
define void @_ZNK10open_spiel10kuhn_poker9KuhnState8ToStringB5cxx11Ev(ptr dead_on_unwind noalias nonnull writable sret(%"class.std::__cxx11::basic_string") align 8 %0, ptr nocapture noundef nonnull readonly align 8 dereferenceable(120) %1) unnamed_addr #3 align 2 personality ptr @__gxx_personality_v0 {
  %3 = alloca %"class.absl::debian2::AlphaNum", align 8
  tail call void @_ZNSt7__cxx1112basic_stringIcSt11char_traitsIcESaIcEEC1Ev(ptr noundef nonnull align 8 dereferenceable(32) %0) #27
  %4 = getelementptr inbounds nuw i8, ptr %1, i64 32
  %5 = getelementptr inbounds i8, ptr %1, i64 40
  %6 = getelementptr inbounds nuw i8, ptr %1, i64 28
  %7 = load ptr, ptr %5, align 8
  %8 = load ptr, ptr %4, align 8
  %9 = icmp ne ptr %7, %8
  %10 = load i32, ptr %6, align 4
  %11 = icmp sgt i32 %10, 0
  %or.cond32 = select i1 %9, i1 %11, i1 false
  br i1 %or.cond32, label %.lr.ph, label %..critedge_crit_edge

..critedge_crit_edge:                             ; preds = %2
  %12 = ptrtoint ptr %7 to i64
  %13 = ptrtoint ptr %8 to i64
  %14 = sub i64 %12, %13
  %15 = ashr exact i64 %14, 4
  %.pre48 = sext i32 %10 to i64
  br label %.critedge

.lr.ph:                                           ; preds = %2
  %16 = getelementptr inbounds nuw i8, ptr %3, i64 16
  %17 = ptrtoint ptr %16 to i64
  %18 = getelementptr inbounds nuw i8, ptr %3, i64 8
  br label %19

19:                                               ; preds = %.lr.ph, %32
  %indvars.iv = phi i64 [ 0, %.lr.ph ], [ %indvars.iv.next, %32 ]
  %20 = call noundef zeroext i1 @_ZNKSt7__cxx1112basic_stringIcSt11char_traitsIcESaIcEE5emptyEv(ptr noundef nonnull align 8 dereferenceable(32) %0) #27
  br i1 %20, label %22, label %21

21:                                               ; preds = %19
  invoke void @_ZNSt7__cxx1112basic_stringIcSt11char_traitsIcESaIcEE9push_backEc(ptr noundef nonnull align 8 dereferenceable(32) %0, i8 noundef signext 32)
          to label %22 unwind label %.loopexit.split-lp.loopexit

.loopexit:                                        ; preds = %.lr.ph37
  %lpad.loopexit = landingpad { ptr, i32 }
          cleanup
  br label %.loopexit.split-lp

.loopexit.split-lp.loopexit:                      ; preds = %22, %31, %21
  %lpad.loopexit15 = landingpad { ptr, i32 }
          cleanup
  br label %.loopexit.split-lp

.loopexit.split-lp.loopexit.split-lp:             ; preds = %46
  %lpad.loopexit.split-lp16 = landingpad { ptr, i32 }
          cleanup
  br label %.loopexit.split-lp

.loopexit.split-lp:                               ; preds = %.loopexit.split-lp.loopexit, %.loopexit.split-lp.loopexit.split-lp, %.loopexit
  %lpad.phi = phi { ptr, i32 } [ %lpad.loopexit, %.loopexit ], [ %lpad.loopexit15, %.loopexit.split-lp.loopexit ], [ %lpad.loopexit.split-lp16, %.loopexit.split-lp.loopexit.split-lp ]
  call void @_ZNSt7__cxx1112basic_stringIcSt11char_traitsIcESaIcEED1Ev(ptr noundef nonnull align 8 dereferenceable(32) %0) #27
  resume { ptr, i32 } %lpad.phi

22:                                               ; preds = %21, %19
  %23 = load ptr, ptr %4, align 8
  %24 = getelementptr inbounds %"struct.open_spiel::State::PlayerAction", ptr %23, i64 %indvars.iv, i32 1
  %25 = load i64, ptr %24, align 8
  %26 = invoke noundef ptr @_ZN4absl7debian216numbers_internal15FastIntToBufferElPc(i64 noundef %25, ptr noundef nonnull %16)
          to label %.noexc unwind label %.loopexit.split-lp.loopexit

.noexc:                                           ; preds = %22
  %27 = ptrtoint ptr %26 to i64
  %28 = sub i64 %27, %17
  store ptr %16, ptr %3, align 8
  %29 = icmp sgt i64 %28, -1
  br i1 %29, label %31, label %30

30:                                               ; preds = %.noexc
  call void @llvm.trap()
  unreachable

31:                                               ; preds = %.noexc
  store i64 %28, ptr %18, align 8
  invoke void @_ZN4absl7debian29StrAppendEPNSt7__cxx1112basic_stringIcSt11char_traitsIcESaIcEEERKNS0_8AlphaNumE(ptr noundef nonnull %0, ptr noundef nonnull align 8 dereferenceable(48) %3)
          to label %32 unwind label %.loopexit.split-lp.loopexit

32:                                               ; preds = %31
  %indvars.iv.next = add nuw nsw i64 %indvars.iv, 1
  %33 = load ptr, ptr %5, align 8
  %34 = load ptr, ptr %4, align 8
  %35 = ptrtoint ptr %33 to i64
  %36 = ptrtoint ptr %34 to i64
  %37 = sub i64 %35, %36
  %38 = ashr exact i64 %37, 4
  %39 = icmp ugt i64 %38, %indvars.iv.next
  %40 = load i32, ptr %6, align 4
  %41 = sext i32 %40 to i64
  %42 = icmp slt i64 %indvars.iv.next, %41
  %or.cond = select i1 %39, i1 %42, i1 false
  br i1 %or.cond, label %19, label %.critedge, !llvm.loop !8

.critedge:                                        ; preds = %32, %..critedge_crit_edge
  %.pre-phi49 = phi i64 [ %.pre48, %..critedge_crit_edge ], [ %41, %32 ]
  %43 = phi ptr [ %8, %..critedge_crit_edge ], [ %34, %32 ]
  %44 = phi ptr [ %7, %..critedge_crit_edge ], [ %33, %32 ]
  %.lcssa23 = phi i64 [ %15, %..critedge_crit_edge ], [ %38, %32 ]
  %45 = icmp ugt i64 %.lcssa23, %.pre-phi49
  br i1 %45, label %46, label %47

46:                                               ; preds = %.critedge
  invoke void @_ZNSt7__cxx1112basic_stringIcSt11char_traitsIcESaIcEE9push_backEc(ptr noundef nonnull align 8 dereferenceable(32) %0, i8 noundef signext 32)
          to label %._crit_edge44 unwind label %.loopexit.split-lp.loopexit.split-lp

._crit_edge44:                                    ; preds = %46
  %.pre = load i32, ptr %6, align 4
  %.pre45 = load ptr, ptr %5, align 8
  %.pre46 = load ptr, ptr %4, align 8
  %.pre47 = sext i32 %.pre to i64
  br label %47

47:                                               ; preds = %._crit_edge44, %.critedge
  %.pre-phi = phi i64 [ %.pre47, %._crit_edge44 ], [ %.pre-phi49, %.critedge ]
  %48 = phi ptr [ %.pre46, %._crit_edge44 ], [ %43, %.critedge ]
  %49 = phi ptr [ %.pre45, %._crit_edge44 ], [ %44, %.critedge ]
  %50 = ptrtoint ptr %49 to i64
  %51 = ptrtoint ptr %48 to i64
  %52 = sub i64 %50, %51
  %53 = ashr exact i64 %52, 4
  %54 = icmp ugt i64 %53, %.pre-phi
  br i1 %54, label %.lr.ph37, label %._crit_edge

.lr.ph37:                                         ; preds = %47, %59
  %indvars.iv41 = phi i64 [ %indvars.iv.next42, %59 ], [ %.pre-phi, %47 ]
  %55 = phi ptr [ %61, %59 ], [ %48, %47 ]
  %56 = getelementptr inbounds %"struct.open_spiel::State::PlayerAction", ptr %55, i64 %indvars.iv41, i32 1
  %57 = load i64, ptr %56, align 8
  %.not = icmp eq i64 %57, 0
  %58 = select i1 %.not, i8 112, i8 98
  invoke void @_ZNSt7__cxx1112basic_stringIcSt11char_traitsIcESaIcEE9push_backEc(ptr noundef nonnull align 8 dereferenceable(32) %0, i8 noundef signext %58)
          to label %59 unwind label %.loopexit

59:                                               ; preds = %.lr.ph37
  %indvars.iv.next42 = add nuw nsw i64 %indvars.iv41, 1
  %60 = load ptr, ptr %5, align 8
  %61 = load ptr, ptr %4, align 8
  %62 = ptrtoint ptr %60 to i64
  %63 = ptrtoint ptr %61 to i64
  %64 = sub i64 %62, %63
  %65 = ashr exact i64 %64, 4
  %66 = icmp ugt i64 %65, %indvars.iv.next42
  br i1 %66, label %.lr.ph37, label %._crit_edge, !llvm.loop !9

._crit_edge:                                      ; preds = %59, %47
  ret void
}